; Function Attrs: mustprogress uwtable
define hidden void @_ZN3sat11npn3_finder8find_majER10ptr_vectorINS_6clauseEE(ptr noundef nonnull align 8 dereferenceable(416) %this, ptr nocapture noundef nonnull readonly align 8 dereferenceable(8) %clauses) local_unnamed_addr #7 align 2 personality ptr @__gxx_personality_v0 {
entry:
  %ref.tmp = alloca %"class.std::function.67", align 8
  %m_on_maj = getelementptr inbounds i8, ptr %this, i64 120
  %_M_manager.i.i = getelementptr inbounds i8, ptr %ref.tmp, i64 16
  %_M_invoker.i = getelementptr inbounds i8, ptr %ref.tmp, i64 24
  %0 = getelementptr inbounds i8, ptr %ref.tmp, i64 8
  store i64 0, ptr %0, align 8
  %1 = ptrtoint ptr %this to i64
  store i64 %1, ptr %ref.tmp, align 8
  store ptr @"_ZNSt17_Function_handlerIFbRK9hashtableIN3sat11npn3_finder6binaryENS3_4hashENS3_2eqEERKS0_INS2_7ternaryENS9_4hashENS9_2eqEENS1_7literalESF_SF_RNS1_6clauseEEZNS2_8find_majER10ptr_vectorISG_EE3$_0E9_M_invokeERKSt9_Any_dataS8_SE_OSF_SR_SR_SH_", ptr %_M_invoker.i, align 8
  store ptr @"_ZNSt17_Function_handlerIFbRK9hashtableIN3sat11npn3_finder6binaryENS3_4hashENS3_2eqEERKS0_INS2_7ternaryENS9_4hashENS9_2eqEENS1_7literalESF_SF_RNS1_6clauseEEZNS2_8find_majER10ptr_vectorISG_EE3$_0E10_M_managerERSt9_Any_dataRKSO_St18_Manager_operation", ptr %_M_manager.i.i, align 8
  invoke void @_ZN3sat11npn3_finder9find_npn3ER10ptr_vectorINS_6clauseEERKSt8functionIFvNS_7literalES6_S6_S6_EERKS5_IFbRK9hashtableINS0_6binaryENSC_4hashENSC_2eqEERKSB_INS0_7ternaryENSI_4hashENSI_2eqEES6_S6_S6_RS2_EE(ptr noundef nonnull align 8 dereferenceable(416) %this, ptr noundef nonnull align 8 dereferenceable(8) %clauses, ptr noundef nonnull align 8 dereferenceable(32) %m_on_maj, ptr noundef nonnull align 8 dereferenceable(32) %ref.tmp)
          to label %invoke.cont unwind label %lpad

invoke.cont:                                      ; preds = %entry
  %2 = load ptr, ptr %_M_manager.i.i, align 8
  %tobool.not.i.i = icmp eq ptr %2, null
  br i1 %tobool.not.i.i, label %_ZNSt8functionIFbRK9hashtableIN3sat11npn3_finder6binaryENS3_4hashENS3_2eqEERKS0_INS2_7ternaryENS9_4hashENS9_2eqEENS1_7literalESF_SF_RNS1_6clauseEEED2Ev.exit, label %if.then.i.i

if.then.i.i:                                      ; preds = %invoke.cont
  %call.i.i = invoke noundef zeroext i1 %2(ptr noundef nonnull align 8 dereferenceable(16) %ref.tmp, ptr noundef nonnull align 8 dereferenceable(16) %ref.tmp, i32 noundef 3)
          to label %_ZNSt8functionIFbRK9hashtableIN3sat11npn3_finder6binaryENS3_4hashENS3_2eqEERKS0_INS2_7ternaryENS9_4hashENS9_2eqEENS1_7literalESF_SF_RNS1_6clauseEEED2Ev.exit unwind label %terminate.lpad.i.i

terminate.lpad.i.i:                               ; preds = %if.then.i.i
  %3 = landingpad { ptr, i32 }
          catch ptr null
  %4 = extractvalue { ptr, i32 } %3, 0
  call void @__clang_call_terminate(ptr %4) #20
  unreachable

_ZNSt8functionIFbRK9hashtableIN3sat11npn3_finder6binaryENS3_4hashENS3_2eqEERKS0_INS2_7ternaryENS9_4hashENS9_2eqEENS1_7literalESF_SF_RNS1_6clauseEEED2Ev.exit: ; preds = %invoke.cont, %if.then.i.i
  ret void

lpad:                                             ; preds = %entry
  %5 = landingpad { ptr, i32 }
          cleanup
  %6 = load ptr, ptr %_M_manager.i.i, align 8
  %tobool.not.i.i3 = icmp eq ptr %6, null
  br i1 %tobool.not.i.i3, label %_ZNSt8functionIFbRK9hashtableIN3sat11npn3_finder6binaryENS3_4hashENS3_2eqEERKS0_INS2_7ternaryENS9_4hashENS9_2eqEENS1_7literalESF_SF_RNS1_6clauseEEED2Ev.exit7, label %if.then.i.i4

if.then.i.i4:                                     ; preds = %lpad
  %call.i.i5 = invoke noundef zeroext i1 %6(ptr noundef nonnull align 8 dereferenceable(16) %ref.tmp, ptr noundef nonnull align 8 dereferenceable(16) %ref.tmp, i32 noundef 3)
          to label %_ZNSt8functionIFbRK9hashtableIN3sat11npn3_finder6binaryENS3_4hashENS3_2eqEERKS0_INS2_7ternaryENS9_4hashENS9_2eqEENS1_7literalESF_SF_RNS1_6clauseEEED2Ev.exit7 unwind label %terminate.lpad.i.i6

terminate.lpad.i.i6:                              ; preds = %if.then.i.i4
  %7 = landingpad { ptr, i32 }
          catch ptr null
  %8 = extractvalue { ptr, i32 } %7, 0
  call void @__clang_call_terminate(ptr %8) #20
  unreachable

_ZNSt8functionIFbRK9hashtableIN3sat11npn3_finder6binaryENS3_4hashENS3_2eqEERKS0_INS2_7ternaryENS9_4hashENS9_2eqEENS1_7literalESF_SF_RNS1_6clauseEEED2Ev.exit7: ; preds = %lpad, %if.then.i.i4
  resume { ptr, i32 } %5
}